target datalayout = "e-m:e-p270:32:32-p271:32:32-p272:64:64-i64:64-i128:128-f80:128-n8:16:32:64-S128"
target triple = "x86_64-pc-linux-gnu"

%struct.unim_index = type { ptr, i8, i8 }

; Function Attrs: inlinehint nounwind uwtable
define internal i32 @PyUnicode_READ(i32 noundef %0, ptr noundef %1, i64 noundef %2) #2 {
  %4 = alloca i32, align 4
  %5 = alloca i32, align 4
  %6 = alloca ptr, align 8
  %7 = alloca i64, align 8
  store i32 %0, ptr %5, align 4, !tbaa !19
  store ptr %1, ptr %6, align 8, !tbaa !3
  store i64 %2, ptr %7, align 8, !tbaa !28
  %8 = load i32, ptr %5, align 4, !tbaa !19
  %9 = icmp eq i32 %8, 1
  br i1 %9, label %10, label %16

10:                                               ; preds = %3
  %11 = load ptr, ptr %6, align 8, !tbaa !3
  %12 = load i64, ptr %7, align 8, !tbaa !28
  %13 = getelementptr i8, ptr %11, i64 %12
  %14 = load i8, ptr %13, align 1, !tbaa !42
  %15 = zext i8 %14 to i32
  store i32 %15, ptr %4, align 4
  br label %30

16:                                               ; preds = %3
  %17 = load i32, ptr %5, align 4, !tbaa !19
  %18 = icmp eq i32 %17, 2
  br i1 %18, label %19, label %25

19:                                               ; preds = %16
  %20 = load ptr, ptr %6, align 8, !tbaa !3
  %21 = load i64, ptr %7, align 8, !tbaa !28
  %22 = getelementptr i16, ptr %20, i64 %21
  %23 = load i16, ptr %22, align 2, !tbaa !76
  %24 = zext i16 %23 to i32
  store i32 %24, ptr %4, align 4
  br label %30

25:                                               ; preds = %16
  %26 = load ptr, ptr %6, align 8, !tbaa !3
  %27 = load i64, ptr %7, align 8, !tbaa !28
  %28 = getelementptr i32, ptr %26, i64 %27
  %29 = load i32, ptr %28, align 4, !tbaa !19
  store i32 %29, ptr %4, align 4
  br label %30

30:                                               ; preds = %25, %19, %10
  %31 = load i32, ptr %4, align 4
  ret i32 %31
}

; Function Attrs: nounwind uwtable
define internal i64 @gb2312_encode(ptr noundef %0, ptr noundef %1, i32 noundef %2, ptr noundef %3, ptr noundef %4, i64 noundef %5, ptr noundef %6, i64 noundef %7, i32 noundef %8) #0 {
  %10 = alloca i64, align 8
  %11 = alloca ptr, align 8
  %12 = alloca ptr, align 8
  %13 = alloca i32, align 4
  %14 = alloca ptr, align 8
  %15 = alloca ptr, align 8
  %16 = alloca i64, align 8
  %17 = alloca ptr, align 8
  %18 = alloca i64, align 8
  %19 = alloca i32, align 4
  %20 = alloca i32, align 4
  %21 = alloca i16, align 2
  %22 = alloca i32, align 4
  store ptr %0, ptr %11, align 8, !tbaa !3
  store ptr %1, ptr %12, align 8, !tbaa !21
  store i32 %2, ptr %13, align 4, !tbaa !19
  store ptr %3, ptr %14, align 8, !tbaa !3
  store ptr %4, ptr %15, align 8, !tbaa !66
  store i64 %5, ptr %16, align 8, !tbaa !28
  store ptr %6, ptr %17, align 8, !tbaa !68
  store i64 %7, ptr %18, align 8, !tbaa !28
  store i32 %8, ptr %19, align 4, !tbaa !19
  br label %23

23:                                               ; preds = %185, %183, %9
  %24 = load ptr, ptr %15, align 8, !tbaa !66
  %25 = load i64, ptr %24, align 8, !tbaa !28
  %26 = load i64, ptr %16, align 8, !tbaa !28
  %27 = icmp slt i64 %25, %26
  br i1 %27, label %28, label %186

28:                                               ; preds = %23
  call void @llvm.lifetime.start.p0(i64 4, ptr %20) #9
  %29 = load i32, ptr %13, align 4, !tbaa !19
  %30 = load ptr, ptr %14, align 8, !tbaa !3
  %31 = load ptr, ptr %15, align 8, !tbaa !66
  %32 = load i64, ptr %31, align 8, !tbaa !28
  %33 = call i32 @PyUnicode_READ(i32 noundef %29, ptr noundef %30, i64 noundef %32)
  store i32 %33, ptr %20, align 4, !tbaa !19
  call void @llvm.lifetime.start.p0(i64 2, ptr %21) #9
  %34 = load i32, ptr %20, align 4, !tbaa !19
  %35 = icmp ult i32 %34, 128
  br i1 %35, label %36, label %72

36:                                               ; preds = %28
  br label %37

37:                                               ; preds = %36
  br label %38

38:                                               ; preds = %37
  %39 = load i64, ptr %18, align 8, !tbaa !28
  %40 = icmp slt i64 %39, 1
  br i1 %40, label %41, label %42

41:                                               ; preds = %38
  store i64 -1, ptr %10, align 8
  store i32 1, ptr %22, align 4
  br label %183

42:                                               ; preds = %38
  br label %43

43:                                               ; preds = %42
  br label %44

44:                                               ; preds = %43
  br label %45

45:                                               ; preds = %44
  %46 = load i32, ptr %20, align 4, !tbaa !19
  %47 = trunc i32 %46 to i8
  %48 = load ptr, ptr %17, align 8, !tbaa !68
  %49 = load ptr, ptr %48, align 8, !tbaa !17
  %50 = getelementptr i8, ptr %49, i64 0
  store i8 %47, ptr %50, align 1, !tbaa !42
  br label %51

51:                                               ; preds = %45
  br label %52

52:                                               ; preds = %51
  br label %53

53:                                               ; preds = %52
  br label %54

54:                                               ; preds = %53
  br label %55

55:                                               ; preds = %54
  br label %56

56:                                               ; preds = %55
  %57 = load ptr, ptr %15, align 8, !tbaa !66
  %58 = load i64, ptr %57, align 8, !tbaa !28
  %59 = add i64 %58, 1
  store i64 %59, ptr %57, align 8, !tbaa !28
  br label %60

60:                                               ; preds = %56
  br label %61

61:                                               ; preds = %60
  br label %62

62:                                               ; preds = %61
  %63 = load ptr, ptr %17, align 8, !tbaa !68
  %64 = load ptr, ptr %63, align 8, !tbaa !17
  %65 = getelementptr i8, ptr %64, i64 1
  store ptr %65, ptr %63, align 8, !tbaa !17
  %66 = load i64, ptr %18, align 8, !tbaa !28
  %67 = sub i64 %66, 1
  store i64 %67, ptr %18, align 8, !tbaa !28
  br label %68

68:                                               ; preds = %62
  br label %69

69:                                               ; preds = %68
  br label %70

70:                                               ; preds = %69
  br label %71

71:                                               ; preds = %70
  store i32 2, ptr %22, align 4
  br label %183, !llvm.loop !70

72:                                               ; preds = %28
  %73 = load i32, ptr %20, align 4, !tbaa !19
  %74 = icmp ugt i32 %73, 65535
  br i1 %74, label %75, label %76

75:                                               ; preds = %72
  store i64 1, ptr %10, align 8
  store i32 1, ptr %22, align 4
  br label %183

76:                                               ; preds = %72
  br label %77

77:                                               ; preds = %76
  %78 = load i64, ptr %18, align 8, !tbaa !28
  %79 = icmp slt i64 %78, 2
  br i1 %79, label %80, label %81

80:                                               ; preds = %77
  store i64 -1, ptr %10, align 8
  store i32 1, ptr %22, align 4
  br label %183

81:                                               ; preds = %77
  br label %82

82:                                               ; preds = %81
  br label %83

83:                                               ; preds = %82
  %84 = load i32, ptr %20, align 4, !tbaa !19
  %85 = lshr i32 %84, 8
  %86 = zext i32 %85 to i64
  %87 = getelementptr [256 x %struct.unim_index], ptr @gbcommon_encmap, i64 0, i64 %86
  %88 = getelementptr inbounds nuw %struct.unim_index, ptr %87, i32 0, i32 0
  %89 = load ptr, ptr %88, align 16, !tbaa !71
  %90 = icmp ne ptr %89, null
  br i1 %90, label %91, label %136

91:                                               ; preds = %83
  %92 = load i32, ptr %20, align 4, !tbaa !19
  %93 = and i32 %92, 255
  %94 = load i32, ptr %20, align 4, !tbaa !19
  %95 = lshr i32 %94, 8
  %96 = zext i32 %95 to i64
  %97 = getelementptr [256 x %struct.unim_index], ptr @gbcommon_encmap, i64 0, i64 %96
  %98 = getelementptr inbounds nuw %struct.unim_index, ptr %97, i32 0, i32 1
  %99 = load i8, ptr %98, align 8, !tbaa !74
  %100 = zext i8 %99 to i32
  %101 = icmp uge i32 %93, %100
  br i1 %101, label %102, label %136

102:                                              ; preds = %91
  %103 = load i32, ptr %20, align 4, !tbaa !19
  %104 = and i32 %103, 255
  %105 = load i32, ptr %20, align 4, !tbaa !19
  %106 = lshr i32 %105, 8
  %107 = zext i32 %106 to i64
  %108 = getelementptr [256 x %struct.unim_index], ptr @gbcommon_encmap, i64 0, i64 %107
  %109 = getelementptr inbounds nuw %struct.unim_index, ptr %108, i32 0, i32 2
  %110 = load i8, ptr %109, align 1, !tbaa !75
  %111 = zext i8 %110 to i32
  %112 = icmp ule i32 %104, %111
  br i1 %112, label %113, label %136

113:                                              ; preds = %102
  %114 = load i32, ptr %20, align 4, !tbaa !19
  %115 = lshr i32 %114, 8
  %116 = zext i32 %115 to i64
  %117 = getelementptr [256 x %struct.unim_index], ptr @gbcommon_encmap, i64 0, i64 %116
  %118 = getelementptr inbounds nuw %struct.unim_index, ptr %117, i32 0, i32 0
  %119 = load ptr, ptr %118, align 16, !tbaa !71
  %120 = load i32, ptr %20, align 4, !tbaa !19
  %121 = and i32 %120, 255
  %122 = load i32, ptr %20, align 4, !tbaa !19
  %123 = lshr i32 %122, 8
  %124 = zext i32 %123 to i64
  %125 = getelementptr [256 x %struct.unim_index], ptr @gbcommon_encmap, i64 0, i64 %124
  %126 = getelementptr inbounds nuw %struct.unim_index, ptr %125, i32 0, i32 1
  %127 = load i8, ptr %126, align 8, !tbaa !74
  %128 = zext i8 %127 to i32
  %129 = sub i32 %121, %128
  %130 = zext i32 %129 to i64
  %131 = getelementptr i16, ptr %119, i64 %130
  %132 = load i16, ptr %131, align 2, !tbaa !76
  store i16 %132, ptr %21, align 2, !tbaa !76
  %133 = zext i16 %132 to i32
  %134 = icmp ne i32 %133, 65535
  br i1 %134, label %135, label %136

135:                                              ; preds = %113
  br label %137

136:                                              ; preds = %113, %102, %91, %83
  store i64 1, ptr %10, align 8
  store i32 1, ptr %22, align 4
  br label %183

137:                                              ; preds = %135
  %138 = load i16, ptr %21, align 2, !tbaa !76
  %139 = zext i16 %138 to i32
  %140 = and i32 %139, 32768
  %141 = icmp ne i32 %140, 0
  br i1 %141, label %142, label %143

142:                                              ; preds = %137
  store i64 1, ptr %10, align 8
  store i32 1, ptr %22, align 4
  br label %183

143:                                              ; preds = %137
  br label %144

144:                                              ; preds = %143
  %145 = load i16, ptr %21, align 2, !tbaa !76
  %146 = zext i16 %145 to i32
  %147 = ashr i32 %146, 8
  %148 = or i32 %147, 128
  %149 = trunc i32 %148 to i8
  %150 = load ptr, ptr %17, align 8, !tbaa !68
  %151 = load ptr, ptr %150, align 8, !tbaa !17
  %152 = getelementptr i8, ptr %151, i64 0
  store i8 %149, ptr %152, align 1, !tbaa !42
  br label %153

153:                                              ; preds = %144
  br label %154

154:                                              ; preds = %153
  br label %155

155:                                              ; preds = %154
  %156 = load i16, ptr %21, align 2, !tbaa !76
  %157 = zext i16 %156 to i32
  %158 = and i32 %157, 255
  %159 = or i32 %158, 128
  %160 = trunc i32 %159 to i8
  %161 = load ptr, ptr %17, align 8, !tbaa !68
  %162 = load ptr, ptr %161, align 8, !tbaa !17
  %163 = getelementptr i8, ptr %162, i64 1
  store i8 %160, ptr %163, align 1, !tbaa !42
  br label %164

164:                                              ; preds = %155
  br label %165

165:                                              ; preds = %164
  br label %166

166:                                              ; preds = %165
  br label %167

167:                                              ; preds = %166
  %168 = load ptr, ptr %15, align 8, !tbaa !66
  %169 = load i64, ptr %168, align 8, !tbaa !28
  %170 = add i64 %169, 1
  store i64 %170, ptr %168, align 8, !tbaa !28
  br label %171

171:                                              ; preds = %167
  br label %172

172:                                              ; preds = %171
  br label %173

173:                                              ; preds = %172
  %174 = load ptr, ptr %17, align 8, !tbaa !68
  %175 = load ptr, ptr %174, align 8, !tbaa !17
  %176 = getelementptr i8, ptr %175, i64 2
  store ptr %176, ptr %174, align 8, !tbaa !17
  %177 = load i64, ptr %18, align 8, !tbaa !28
  %178 = sub i64 %177, 2
  store i64 %178, ptr %18, align 8, !tbaa !28
  br label %179

179:                                              ; preds = %173
  br label %180

180:                                              ; preds = %179
  br label %181

181:                                              ; preds = %180
  br label %182

182:                                              ; preds = %181
  store i32 0, ptr %22, align 4
  br label %183

183:                                              ; preds = %182, %142, %136, %80, %75, %71, %41
  call void @llvm.lifetime.end.p0(i64 2, ptr %21) #9
  call void @llvm.lifetime.end.p0(i64 4, ptr %20) #9
  %184 = load i32, ptr %22, align 4
  switch i32 %184, label %189 [
    i32 0, label %185
    i32 1, label %187
    i32 2, label %23
  ]

185:                                              ; preds = %183
  br label %23, !llvm.loop !70

186:                                              ; preds = %23
  store i64 0, ptr %10, align 8
  br label %187

187:                                              ; preds = %186, %183
  %188 = load i64, ptr %10, align 8
  ret i64 %188

189:                                              ; preds = %183
  unreachable
}